; Function Attrs: nounwind uwtable
define hidden nonnull ptr @cmsIT8GetSheetType(ptr noundef %0) local_unnamed_addr #0 {
  %2 = getelementptr inbounds i8, ptr %0, i64 4
  %3 = load i32, ptr %2, align 4
  %4 = load i32, ptr %0, align 8
  %.not.i = icmp ult i32 %3, %4
  br i1 %.not.i, label %7, label %5

5:                                                ; preds = %1
  tail call void (ptr, ptr, ...) @SynError(ptr noundef nonnull %0, ptr noundef nonnull @.str.81, i32 noundef %3)
  %6 = getelementptr inbounds i8, ptr %0, i64 16
  br label %GetTable.exit

7:                                                ; preds = %1
  %8 = getelementptr inbounds i8, ptr %0, i64 16
  %9 = zext i32 %3 to i64
  %10 = getelementptr inbounds %struct._Table, ptr %8, i64 %9
  br label %GetTable.exit

GetTable.exit:                                    ; preds = %5, %7
  %.0.i = phi ptr [ %6, %5 ], [ %10, %7 ]
  ret ptr %.0.i
}